target datalayout = "e-m:e-p270:32:32-p271:32:32-p272:64:64-i64:64-i128:128-f80:128-n8:16:32:64-S128"
target triple = "x86_64-pc-linux-gnu"

%struct._lv_matrix_t = type { [3 x [3 x float]] }
%struct._lv_array_t = type { ptr, i32, i32, i32, i8 }
%struct.lv_area_t = type { i32, i32, i32, i32 }
%struct.lv_color32_t = type { i8, i8, i8, i8 }
%struct.lv_color_t = type { i8, i8, i8 }
%struct._lv_vector_dsc_t = type { ptr, %struct._lv_vector_draw_dsc_t, %struct._lv_draw_vector_task_dsc_t }
%struct._lv_vector_draw_dsc_t = type { %struct._lv_vector_fill_dsc_t, %struct._lv_vector_stroke_dsc_t, %struct._lv_matrix_t, i32, %struct.lv_area_t }
%struct._lv_vector_fill_dsc_t = type { i32, %struct.lv_color32_t, i8, i32, %struct._lv_draw_image_dsc_t, %struct._lv_vector_gradient_t, %struct._lv_matrix_t }
%struct._lv_draw_image_dsc_t = type { %struct.lv_draw_dsc_base_t, ptr, %struct.lv_image_header_t, i32, i32, i32, i32, i32, %struct.lv_point_t, %struct.lv_color_t, i8, i8, i8, ptr, %struct.lv_area_t, i32, ptr }
%struct.lv_draw_dsc_base_t = type { ptr, i32, i32, i32, ptr, i64, ptr }
%struct.lv_image_header_t = type <{ i64, i32 }>
%struct.lv_point_t = type { i32, i32 }
%struct._lv_vector_gradient_t = type { i32, [2 x %struct.lv_gradient_stop_t], i16, float, float, float, float, float, float, float, i32 }
%struct.lv_gradient_stop_t = type { %struct.lv_color_t, i8, i8 }
%struct._lv_vector_stroke_dsc_t = type { i32, %struct.lv_color32_t, i8, float, %struct._lv_array_t, i32, i32, i16, %struct._lv_vector_gradient_t, %struct._lv_matrix_t }
%struct._lv_draw_vector_task_dsc_t = type { %struct.lv_draw_dsc_base_t, ptr }

; Function Attrs: nounwind uwtable
define void @lv_vector_dsc_set_fill_gradient_color_stops(ptr noundef %0, ptr noundef %1, i16 noundef zeroext %2) #0 {
  %4 = alloca ptr, align 8
  %5 = alloca ptr, align 8
  %6 = alloca i16, align 2
  store ptr %0, ptr %4, align 8, !tbaa !3
  store ptr %1, ptr %5, align 8, !tbaa !3
  store i16 %2, ptr %6, align 2, !tbaa !80
  %7 = load i16, ptr %6, align 2, !tbaa !80
  %8 = zext i16 %7 to i32
  %9 = icmp sgt i32 %8, 2
  br i1 %9, label %10, label %13

10:                                               ; preds = %3
  br label %11

11:                                               ; preds = %10
  br label %12

12:                                               ; preds = %11
  store i16 2, ptr %6, align 2, !tbaa !80
  br label %13

13:                                               ; preds = %12, %3
  %14 = load ptr, ptr %4, align 8, !tbaa !3
  %15 = getelementptr inbounds nuw %struct._lv_vector_dsc_t, ptr %14, i32 0, i32 1
  %16 = getelementptr inbounds nuw %struct._lv_vector_draw_dsc_t, ptr %15, i32 0, i32 0
  %17 = getelementptr inbounds nuw %struct._lv_vector_fill_dsc_t, ptr %16, i32 0, i32 5
  %18 = getelementptr inbounds nuw %struct._lv_vector_gradient_t, ptr %17, i32 0, i32 1
  %19 = load ptr, ptr %5, align 8, !tbaa !3
  %20 = load i16, ptr %6, align 2, !tbaa !80
  %21 = zext i16 %20 to i64
  %22 = mul i64 5, %21
  %23 = call ptr @lv_memcpy(ptr noundef %18, ptr noundef %19, i64 noundef %22)
  %24 = load i16, ptr %6, align 2, !tbaa !80
  %25 = load ptr, ptr %4, align 8, !tbaa !3
  %26 = getelementptr inbounds nuw %struct._lv_vector_dsc_t, ptr %25, i32 0, i32 1
  %27 = getelementptr inbounds nuw %struct._lv_vector_draw_dsc_t, ptr %26, i32 0, i32 0
  %28 = getelementptr inbounds nuw %struct._lv_vector_fill_dsc_t, ptr %27, i32 0, i32 5
  %29 = getelementptr inbounds nuw %struct._lv_vector_gradient_t, ptr %28, i32 0, i32 2
  store i16 %24, ptr %29, align 2, !tbaa !81
  ret void
}