; Function Attrs: nounwind uwtable
define void @lv_vector_dsc_set_fill_gradient_color_stops(ptr noundef %0, ptr noundef %1, i16 noundef zeroext %2) local_unnamed_addr #3 {
  %spec.store.select = tail call i16 @llvm.umin.i16(i16 %2, i16 2)
  %4 = getelementptr inbounds nuw i8, ptr %0, i64 172
  %narrow = mul nuw nsw i16 %spec.store.select, 5
  %5 = zext nneg i16 %narrow to i64
  %6 = tail call ptr @lv_memcpy(ptr noundef nonnull %4, ptr noundef %1, i64 noundef %5) #9
  %7 = getelementptr inbounds nuw i8, ptr %0, i64 182
  store i16 %spec.store.select, ptr %7, align 2, !tbaa !73
  ret void
}